target datalayout = "e-m:e-p270:32:32-p271:32:32-p272:64:64-i64:64-i128:128-f80:128-n8:16:32:64-S128"
target triple = "x86_64-unknown-linux-gnu"

%class.btVector3 = type { [4 x float] }

; Function Attrs: mustprogress nounwind uwtable
define linkonce_odr dso_local void @_ZN9btVector3C2ERKfS1_S1_(ptr noundef nonnull align 4 dereferenceable(16) %this, ptr noundef nonnull align 4 dereferenceable(4) %_x, ptr noundef nonnull align 4 dereferenceable(4) %_y, ptr noundef nonnull align 4 dereferenceable(4) %_z) unnamed_addr #1 comdat align 2 {
entry:
  %this.addr = alloca ptr, align 8
  %_x.addr = alloca ptr, align 8
  %_y.addr = alloca ptr, align 8
  %_z.addr = alloca ptr, align 8
  store ptr %this, ptr %this.addr, align 8
  store ptr %_x, ptr %_x.addr, align 8
  store ptr %_y, ptr %_y.addr, align 8
  store ptr %_z, ptr %_z.addr, align 8
  %this1 = load ptr, ptr %this.addr, align 8
  %0 = load ptr, ptr %_x.addr, align 8
  %1 = load float, ptr %0, align 4
  %m_floats = getelementptr inbounds %class.btVector3, ptr %this1, i32 0, i32 0
  %arrayidx = getelementptr inbounds [4 x float], ptr %m_floats, i64 0, i64 0
  store float %1, ptr %arrayidx, align 4
  %2 = load ptr, ptr %_y.addr, align 8
  %3 = load float, ptr %2, align 4
  %m_floats2 = getelementptr inbounds %class.btVector3, ptr %this1, i32 0, i32 0
  %arrayidx3 = getelementptr inbounds [4 x float], ptr %m_floats2, i64 0, i64 1
  store float %3, ptr %arrayidx3, align 4
  %4 = load ptr, ptr %_z.addr, align 8
  %5 = load float, ptr %4, align 4
  %m_floats4 = getelementptr inbounds %class.btVector3, ptr %this1, i32 0, i32 0
  %arrayidx5 = getelementptr inbounds [4 x float], ptr %m_floats4, i64 0, i64 2
  store float %5, ptr %arrayidx5, align 4
  %m_floats6 = getelementptr inbounds %class.btVector3, ptr %this1, i32 0, i32 0
  %arrayidx7 = getelementptr inbounds [4 x float], ptr %m_floats6, i64 0, i64 3
  store float 0.000000e+00, ptr %arrayidx7, align 4
  ret void
}

; Function Attrs: mustprogress uwtable
define linkonce_odr dso_local { <2 x float>, <2 x float> } @_ZmlRK9btVector3RKf(ptr noundef nonnull align 4 dereferenceable(16) %v, ptr noundef nonnull align 4 dereferenceable(4) %s) #3 comdat {
entry:
  %retval = alloca %class.btVector3, align 4
  %v.addr = alloca ptr, align 8
  %s.addr = alloca ptr, align 8
  %ref.tmp = alloca float, align 4
  %ref.tmp1 = alloca float, align 4
  %ref.tmp5 = alloca float, align 4
  store ptr %v, ptr %v.addr, align 8
  store ptr %s, ptr %s.addr, align 8
  %0 = load ptr, ptr %v.addr, align 8
  %m_floats = getelementptr inbounds %class.btVector3, ptr %0, i32 0, i32 0
  %arrayidx = getelementptr inbounds [4 x float], ptr %m_floats, i64 0, i64 0
  %1 = load float, ptr %arrayidx, align 4
  %2 = load ptr, ptr %s.addr, align 8
  %3 = load float, ptr %2, align 4
  %mul = fmul float %1, %3
  store float %mul, ptr %ref.tmp, align 4
  %4 = load ptr, ptr %v.addr, align 8
  %m_floats2 = getelementptr inbounds %class.btVector3, ptr %4, i32 0, i32 0
  %arrayidx3 = getelementptr inbounds [4 x float], ptr %m_floats2, i64 0, i64 1
  %5 = load float, ptr %arrayidx3, align 4
  %6 = load ptr, ptr %s.addr, align 8
  %7 = load float, ptr %6, align 4
  %mul4 = fmul float %5, %7
  store float %mul4, ptr %ref.tmp1, align 4
  %8 = load ptr, ptr %v.addr, align 8
  %m_floats6 = getelementptr inbounds %class.btVector3, ptr %8, i32 0, i32 0
  %arrayidx7 = getelementptr inbounds [4 x float], ptr %m_floats6, i64 0, i64 2
  %9 = load float, ptr %arrayidx7, align 4
  %10 = load ptr, ptr %s.addr, align 8
  %11 = load float, ptr %10, align 4
  %mul8 = fmul float %9, %11
  store float %mul8, ptr %ref.tmp5, align 4
  call void @_ZN9btVector3C2ERKfS1_S1_(ptr noundef nonnull align 4 dereferenceable(16) %retval, ptr noundef nonnull align 4 dereferenceable(4) %ref.tmp, ptr noundef nonnull align 4 dereferenceable(4) %ref.tmp1, ptr noundef nonnull align 4 dereferenceable(4) %ref.tmp5)
  %coerce.dive = getelementptr inbounds %class.btVector3, ptr %retval, i32 0, i32 0
  %12 = load { <2 x float>, <2 x float> }, ptr %coerce.dive, align 4
  ret { <2 x float>, <2 x float> } %12
}

; Function Attrs: mustprogress uwtable
define linkonce_odr dso_local { <2 x float>, <2 x float> } @_ZmiRK9btVector3S1_(ptr noundef nonnull align 4 dereferenceable(16) %v1, ptr noundef nonnull align 4 dereferenceable(16) %v2) #3 comdat {
entry:
  %retval = alloca %class.btVector3, align 4
  %v1.addr = alloca ptr, align 8
  %v2.addr = alloca ptr, align 8
  %ref.tmp = alloca float, align 4
  %ref.tmp3 = alloca float, align 4
  %ref.tmp9 = alloca float, align 4
  store ptr %v1, ptr %v1.addr, align 8
  store ptr %v2, ptr %v2.addr, align 8
  %0 = load ptr, ptr %v1.addr, align 8
  %m_floats = getelementptr inbounds %class.btVector3, ptr %0, i32 0, i32 0
  %arrayidx = getelementptr inbounds [4 x float], ptr %m_floats, i64 0, i64 0
  %1 = load float, ptr %arrayidx, align 4
  %2 = load ptr, ptr %v2.addr, align 8
  %m_floats1 = getelementptr inbounds %class.btVector3, ptr %2, i32 0, i32 0
  %arrayidx2 = getelementptr inbounds [4 x float], ptr %m_floats1, i64 0, i64 0
  %3 = load float, ptr %arrayidx2, align 4
  %sub = fsub float %1, %3
  store float %sub, ptr %ref.tmp, align 4
  %4 = load ptr, ptr %v1.addr, align 8
  %m_floats4 = getelementptr inbounds %class.btVector3, ptr %4, i32 0, i32 0
  %arrayidx5 = getelementptr inbounds [4 x float], ptr %m_floats4, i64 0, i64 1
  %5 = load float, ptr %arrayidx5, align 4
  %6 = load ptr, ptr %v2.addr, align 8
  %m_floats6 = getelementptr inbounds %class.btVector3, ptr %6, i32 0, i32 0
  %arrayidx7 = getelementptr inbounds [4 x float], ptr %m_floats6, i64 0, i64 1
  %7 = load float, ptr %arrayidx7, align 4
  %sub8 = fsub float %5, %7
  store float %sub8, ptr %ref.tmp3, align 4
  %8 = load ptr, ptr %v1.addr, align 8
  %m_floats10 = getelementptr inbounds %class.btVector3, ptr %8, i32 0, i32 0
  %arrayidx11 = getelementptr inbounds [4 x float], ptr %m_floats10, i64 0, i64 2
  %9 = load float, ptr %arrayidx11, align 4
  %10 = load ptr, ptr %v2.addr, align 8
  %m_floats12 = getelementptr inbounds %class.btVector3, ptr %10, i32 0, i32 0
  %arrayidx13 = getelementptr inbounds [4 x float], ptr %m_floats12, i64 0, i64 2
  %11 = load float, ptr %arrayidx13, align 4
  %sub14 = fsub float %9, %11
  store float %sub14, ptr %ref.tmp9, align 4
  call void @_ZN9btVector3C2ERKfS1_S1_(ptr noundef nonnull align 4 dereferenceable(16) %retval, ptr noundef nonnull align 4 dereferenceable(4) %ref.tmp, ptr noundef nonnull align 4 dereferenceable(4) %ref.tmp3, ptr noundef nonnull align 4 dereferenceable(4) %ref.tmp9)
  %coerce.dive = getelementptr inbounds %class.btVector3, ptr %retval, i32 0, i32 0
  %12 = load { <2 x float>, <2 x float> }, ptr %coerce.dive, align 4
  ret { <2 x float>, <2 x float> } %12
}

; Function Attrs: mustprogress uwtable
define linkonce_odr dso_local { <2 x float>, <2 x float> } @_ZmlRKfRK9btVector3(ptr noundef nonnull align 4 dereferenceable(4) %s, ptr noundef nonnull align 4 dereferenceable(16) %v) #2 comdat {
entry:
  %retval = alloca %class.btVector3, align 4
  %s.addr = alloca ptr, align 8
  %v.addr = alloca ptr, align 8
  store ptr %s, ptr %s.addr, align 8
  store ptr %v, ptr %v.addr, align 8
  %0 = load ptr, ptr %v.addr, align 8
  %1 = load ptr, ptr %s.addr, align 8
  %call = call { <2 x float>, <2 x float> } @_ZmlRK9btVector3RKf(ptr noundef nonnull align 4 dereferenceable(16) %0, ptr noundef nonnull align 4 dereferenceable(4) %1)
  %coerce.dive = getelementptr inbounds %class.btVector3, ptr %retval, i32 0, i32 0
  %2 = getelementptr inbounds { <2 x float>, <2 x float> }, ptr %coerce.dive, i32 0, i32 0
  %3 = extractvalue { <2 x float>, <2 x float> } %call, 0
  store <2 x float> %3, ptr %2, align 4
  %4 = getelementptr inbounds { <2 x float>, <2 x float> }, ptr %coerce.dive, i32 0, i32 1
  %5 = extractvalue { <2 x float>, <2 x float> } %call, 1
  store <2 x float> %5, ptr %4, align 4
  %coerce.dive1 = getelementptr inbounds %class.btVector3, ptr %retval, i32 0, i32 0
  %6 = load { <2 x float>, <2 x float> }, ptr %coerce.dive1, align 4
  ret { <2 x float>, <2 x float> } %6
}

; Function Attrs: mustprogress nounwind uwtable
define linkonce_odr dso_local noundef float @_ZNK9btVector33dotERKS_(ptr noundef nonnull align 4 dereferenceable(16) %this, ptr noundef nonnull align 4 dereferenceable(16) %v) #1 comdat align 2 {
entry:
  %this.addr = alloca ptr, align 8
  %v.addr = alloca ptr, align 8
  store ptr %this, ptr %this.addr, align 8
  store ptr %v, ptr %v.addr, align 8
  %this1 = load ptr, ptr %this.addr, align 8
  %m_floats = getelementptr inbounds %class.btVector3, ptr %this1, i32 0, i32 0
  %arrayidx = getelementptr inbounds [4 x float], ptr %m_floats, i64 0, i64 0
  %0 = load float, ptr %arrayidx, align 4
  %1 = load ptr, ptr %v.addr, align 8
  %m_floats2 = getelementptr inbounds %class.btVector3, ptr %1, i32 0, i32 0
  %arrayidx3 = getelementptr inbounds [4 x float], ptr %m_floats2, i64 0, i64 0
  %2 = load float, ptr %arrayidx3, align 4
  %m_floats4 = getelementptr inbounds %class.btVector3, ptr %this1, i32 0, i32 0
  %arrayidx5 = getelementptr inbounds [4 x float], ptr %m_floats4, i64 0, i64 1
  %3 = load float, ptr %arrayidx5, align 4
  %4 = load ptr, ptr %v.addr, align 8
  %m_floats6 = getelementptr inbounds %class.btVector3, ptr %4, i32 0, i32 0
  %arrayidx7 = getelementptr inbounds [4 x float], ptr %m_floats6, i64 0, i64 1
  %5 = load float, ptr %arrayidx7, align 4
  %mul8 = fmul float %3, %5
  %6 = call float @llvm.fmuladd.f32(float %0, float %2, float %mul8)
  %m_floats9 = getelementptr inbounds %class.btVector3, ptr %this1, i32 0, i32 0
  %arrayidx10 = getelementptr inbounds [4 x float], ptr %m_floats9, i64 0, i64 2
  %7 = load float, ptr %arrayidx10, align 4
  %8 = load ptr, ptr %v.addr, align 8
  %m_floats11 = getelementptr inbounds %class.btVector3, ptr %8, i32 0, i32 0
  %arrayidx12 = getelementptr inbounds [4 x float], ptr %m_floats11, i64 0, i64 2
  %9 = load float, ptr %arrayidx12, align 4
  %10 = call float @llvm.fmuladd.f32(float %7, float %9, float %6)
  ret float %10
}

; Function Attrs: mustprogress uwtable
define dso_local { <2 x float>, <2 x float> } @_ZN30btKinematicCharacterController26computeReflectionDirectionERK9btVector3S2_(ptr noundef nonnull align 8 dereferenceable(319) %this, ptr noundef nonnull align 4 dereferenceable(16) %direction, ptr noundef nonnull align 4 dereferenceable(16) %normal) #2 align 2 {
entry:
  %retval = alloca %class.btVector3, align 4
  %this.addr = alloca ptr, align 8
  %direction.addr = alloca ptr, align 8
  %normal.addr = alloca ptr, align 8
  %ref.tmp = alloca %class.btVector3, align 4
  %ref.tmp2 = alloca float, align 4
  store ptr %this, ptr %this.addr, align 8
  store ptr %direction, ptr %direction.addr, align 8
  store ptr %normal, ptr %normal.addr, align 8
  %0 = load ptr, ptr %direction.addr, align 8
  %1 = load ptr, ptr %direction.addr, align 8
  %2 = load ptr, ptr %normal.addr, align 8
  %call = call noundef float @_ZNK9btVector33dotERKS_(ptr noundef nonnull align 4 dereferenceable(16) %1, ptr noundef nonnull align 4 dereferenceable(16) %2)
  %mul = fmul float 2.000000e+00, %call
  store float %mul, ptr %ref.tmp2, align 4
  %3 = load ptr, ptr %normal.addr, align 8
  %call3 = call { <2 x float>, <2 x float> } @_ZmlRKfRK9btVector3(ptr noundef nonnull align 4 dereferenceable(4) %ref.tmp2, ptr noundef nonnull align 4 dereferenceable(16) %3)
  %coerce.dive = getelementptr inbounds %class.btVector3, ptr %ref.tmp, i32 0, i32 0
  %4 = getelementptr inbounds { <2 x float>, <2 x float> }, ptr %coerce.dive, i32 0, i32 0
  %5 = extractvalue { <2 x float>, <2 x float> } %call3, 0
  store <2 x float> %5, ptr %4, align 4
  %6 = getelementptr inbounds { <2 x float>, <2 x float> }, ptr %coerce.dive, i32 0, i32 1
  %7 = extractvalue { <2 x float>, <2 x float> } %call3, 1
  store <2 x float> %7, ptr %6, align 4
  %call4 = call { <2 x float>, <2 x float> } @_ZmiRK9btVector3S1_(ptr noundef nonnull align 4 dereferenceable(16) %0, ptr noundef nonnull align 4 dereferenceable(16) %ref.tmp)
  %coerce.dive5 = getelementptr inbounds %class.btVector3, ptr %retval, i32 0, i32 0
  %8 = getelementptr inbounds { <2 x float>, <2 x float> }, ptr %coerce.dive5, i32 0, i32 0
  %9 = extractvalue { <2 x float>, <2 x float> } %call4, 0
  store <2 x float> %9, ptr %8, align 4
  %10 = getelementptr inbounds { <2 x float>, <2 x float> }, ptr %coerce.dive5, i32 0, i32 1
  %11 = extractvalue { <2 x float>, <2 x float> } %call4, 1
  store <2 x float> %11, ptr %10, align 4
  %coerce.dive6 = getelementptr inbounds %class.btVector3, ptr %retval, i32 0, i32 0
  %12 = load { <2 x float>, <2 x float> }, ptr %coerce.dive6, align 4
  ret { <2 x float>, <2 x float> } %12
}