; Function Attrs: mustprogress nofree norecurse nosync nounwind willreturn memory(argmem: read) uwtable
define dso_local { <2 x float>, <2 x float> } @_ZN30btKinematicCharacterController26computeReflectionDirectionERK9btVector3S2_(ptr nocapture noundef nonnull readnone align 8 dereferenceable(319) %this, ptr nocapture noundef nonnull readonly align 4 dereferenceable(16) %direction, ptr nocapture noundef nonnull readonly align 4 dereferenceable(16) %normal) local_unnamed_addr #0 align 2 {
entry:
  %0 = load float, ptr %direction, align 4
  %1 = load float, ptr %normal, align 4
  %arrayidx5.i = getelementptr inbounds i8, ptr %direction, i64 4
  %arrayidx7.i = getelementptr inbounds i8, ptr %normal, i64 4
  %2 = load <2 x float>, ptr %arrayidx5.i, align 4
  %3 = load <2 x float>, ptr %arrayidx7.i, align 4
  %4 = fmul <2 x float> %2, %3
  %mul8.i = extractelement <2 x float> %4, i64 0
  %5 = tail call float @llvm.fmuladd.f32(float %0, float %1, float %mul8.i)
  %6 = extractelement <2 x float> %2, i64 1
  %7 = extractelement <2 x float> %3, i64 1
  %8 = tail call noundef float @llvm.fmuladd.f32(float %6, float %7, float %5)
  %mul = fmul float %8, 2.000000e+00
  %mul.i.i = fmul float %1, %mul
  %9 = insertelement <2 x float> poison, float %mul, i64 0
  %10 = shufflevector <2 x float> %9, <2 x float> poison, <2 x i32> zeroinitializer
  %11 = fmul <2 x float> %3, %10
  %sub.i = fsub float %0, %mul.i.i
  %12 = fsub <2 x float> %2, %11
  %retval.sroa.0.0.vec.insert.i = insertelement <2 x float> poison, float %sub.i, i64 0
  %13 = shufflevector <2 x float> %retval.sroa.0.0.vec.insert.i, <2 x float> %12, <2 x i32> <i32 0, i32 2>
  %14 = shufflevector <2 x float> <float poison, float 0.000000e+00>, <2 x float> %12, <2 x i32> <i32 3, i32 1>
  %.fca.0.insert.i = insertvalue { <2 x float>, <2 x float> } poison, <2 x float> %13, 0
  %.fca.1.insert.i = insertvalue { <2 x float>, <2 x float> } %.fca.0.insert.i, <2 x float> %14, 1
  ret { <2 x float>, <2 x float> } %.fca.1.insert.i
}